target datalayout = "e-m:e-p270:32:32-p271:32:32-p272:64:64-i64:64-i128:128-f80:128-n8:16:32:64-S128"
target triple = "x86_64-pc-linux-gnu"

%struct.pollfd = type { i32, i16, i16 }

@.str.3 = private unnamed_addr constant [25 x i8] c"java/net/SocketException\00", align 1
@.str.14 = private unnamed_addr constant [27 x i8] c"java/net/ProtocolException\00", align 1
@.str.15 = private unnamed_addr constant [26 x i8] c"java/net/ConnectException\00", align 1
@.str.16 = private unnamed_addr constant [32 x i8] c"java/net/NoRouteToHostException\00", align 1
@.str.17 = private unnamed_addr constant [23 x i8] c"java/net/BindException\00", align 1
@.str.18 = private unnamed_addr constant [15 x i8] c"NioSocketError\00", align 1

; Function Attrs: nounwind uwtable
define internal i32 @handleSocketErrorWithMessage(ptr noundef %0, i32 noundef %1, ptr noundef %2) #0 {
  %4 = alloca i32, align 4
  %5 = alloca ptr, align 8
  %6 = alloca i32, align 4
  %7 = alloca ptr, align 8
  %8 = alloca ptr, align 8
  store ptr %0, ptr %5, align 8
  store i32 %1, ptr %6, align 4
  store ptr %2, ptr %7, align 8
  %9 = load i32, ptr %6, align 4
  switch i32 %9, label %15 [
    i32 115, label %10
    i32 71, label %11
    i32 111, label %12
    i32 110, label %12
    i32 107, label %12
    i32 113, label %13
    i32 98, label %14
    i32 99, label %14
    i32 13, label %14
  ]

10:                                               ; preds = %3
  store i32 0, ptr %4, align 4
  br label %29

11:                                               ; preds = %3
  store ptr @.str.14, ptr %8, align 8
  br label %16

12:                                               ; preds = %3, %3, %3
  store ptr @.str.15, ptr %8, align 8
  br label %16

13:                                               ; preds = %3
  store ptr @.str.16, ptr %8, align 8
  br label %16

14:                                               ; preds = %3, %3, %3
  store ptr @.str.17, ptr %8, align 8
  br label %16

15:                                               ; preds = %3
  store ptr @.str.3, ptr %8, align 8
  br label %16

16:                                               ; preds = %15, %14, %13, %12, %11
  %17 = load i32, ptr %6, align 4
  %18 = call ptr @__errno_location() #4
  store i32 %17, ptr %18, align 4
  %19 = load ptr, ptr %7, align 8
  %20 = icmp eq ptr %19, null
  br i1 %20, label %21, label %24

21:                                               ; preds = %16
  %22 = load ptr, ptr %5, align 8
  %23 = load ptr, ptr %8, align 8
  call void @JNU_ThrowByNameWithLastError(ptr noundef %22, ptr noundef %23, ptr noundef @.str.18)
  br label %28

24:                                               ; preds = %16
  %25 = load ptr, ptr %5, align 8
  %26 = load ptr, ptr %8, align 8
  %27 = load ptr, ptr %7, align 8
  call void @JNU_ThrowByNameWithMessageAndLastError(ptr noundef %25, ptr noundef %26, ptr noundef %27)
  br label %28

28:                                               ; preds = %24, %21
  store i32 -5, ptr %4, align 4
  br label %29

29:                                               ; preds = %28, %10
  %30 = load i32, ptr %4, align 4
  ret i32 %30
}

; Function Attrs: nounwind uwtable
define hidden i32 @handleSocketError(ptr noundef %0, i32 noundef %1) #0 {
  %3 = alloca ptr, align 8
  %4 = alloca i32, align 4
  store ptr %0, ptr %3, align 8
  store i32 %1, ptr %4, align 4
  %5 = load ptr, ptr %3, align 8
  %6 = load i32, ptr %4, align 4
  %7 = call i32 @handleSocketErrorWithMessage(ptr noundef %5, i32 noundef %6, ptr noundef null)
  ret i32 %7
}

; Function Attrs: nounwind uwtable
define i32 @Java_sun_nio_ch_Net_poll(ptr noundef %0, ptr noundef %1, ptr noundef %2, i32 noundef %3, i64 noundef %4) #0 {
  %6 = alloca i32, align 4
  %7 = alloca ptr, align 8
  %8 = alloca ptr, align 8
  %9 = alloca ptr, align 8
  %10 = alloca i32, align 4
  %11 = alloca i64, align 8
  %12 = alloca %struct.pollfd, align 4
  %13 = alloca i32, align 4
  store ptr %0, ptr %7, align 8
  store ptr %1, ptr %8, align 8
  store ptr %2, ptr %9, align 8
  store i32 %3, ptr %10, align 4
  store i64 %4, ptr %11, align 8
  %14 = load ptr, ptr %7, align 8
  %15 = load ptr, ptr %9, align 8
  %16 = call i32 @fdval(ptr noundef %14, ptr noundef %15)
  %17 = getelementptr inbounds %struct.pollfd, ptr %12, i32 0, i32 0
  store i32 %16, ptr %17, align 4
  %18 = load i32, ptr %10, align 4
  %19 = trunc i32 %18 to i16
  %20 = getelementptr inbounds %struct.pollfd, ptr %12, i32 0, i32 1
  store i16 %19, ptr %20, align 4
  %21 = load i64, ptr %11, align 8
  %22 = icmp slt i64 %21, -1
  br i1 %22, label %23, label %24

23:                                               ; preds = %5
  store i64 -1, ptr %11, align 8
  br label %29

24:                                               ; preds = %5
  %25 = load i64, ptr %11, align 8
  %26 = icmp sgt i64 %25, 2147483647
  br i1 %26, label %27, label %28

27:                                               ; preds = %24
  store i64 2147483647, ptr %11, align 8
  br label %28

28:                                               ; preds = %27, %24
  br label %29

29:                                               ; preds = %28, %23
  %30 = load i64, ptr %11, align 8
  %31 = trunc i64 %30 to i32
  %32 = call i32 @poll(ptr noundef %12, i64 noundef 1, i32 noundef %31)
  store i32 %32, ptr %13, align 4
  %33 = load i32, ptr %13, align 4
  %34 = icmp sge i32 %33, 0
  br i1 %34, label %35, label %39

35:                                               ; preds = %29
  %36 = getelementptr inbounds %struct.pollfd, ptr %12, i32 0, i32 2
  %37 = load i16, ptr %36, align 2
  %38 = sext i16 %37 to i32
  store i32 %38, ptr %6, align 4
  br label %49

39:                                               ; preds = %29
  %40 = call ptr @__errno_location() #4
  %41 = load i32, ptr %40, align 4
  %42 = icmp eq i32 %41, 4
  br i1 %42, label %43, label %44

43:                                               ; preds = %39
  store i32 0, ptr %6, align 4
  br label %49

44:                                               ; preds = %39
  %45 = load ptr, ptr %7, align 8
  %46 = call ptr @__errno_location() #4
  %47 = load i32, ptr %46, align 4
  %48 = call i32 @handleSocketError(ptr noundef %45, i32 noundef %47)
  store i32 -5, ptr %6, align 4
  br label %49

49:                                               ; preds = %44, %43, %35
  %50 = load i32, ptr %6, align 4
  ret i32 %50
}