; Function Attrs: nounwind uwtable
define range(i32 -32768, 32768) i32 @Java_sun_nio_ch_Net_poll(ptr noundef %0, ptr nocapture noundef readnone %1, ptr noundef %2, i32 noundef %3, i64 noundef %4) local_unnamed_addr #0 {
  %6 = alloca %struct.pollfd, align 4
  %7 = tail call i32 @fdval(ptr noundef %0, ptr noundef %2) #7
  store i32 %7, ptr %6, align 4
  %8 = trunc i32 %3 to i16
  %9 = getelementptr inbounds i8, ptr %6, i64 4
  store i16 %8, ptr %9, align 4
  %spec.store.select = tail call i64 @llvm.smin.i64(i64 %4, i64 2147483647)
  %.0811 = tail call i64 @llvm.smax.i64(i64 %spec.store.select, i64 -1)
  %.08 = trunc nsw i64 %.0811 to i32
  %10 = call i32 @poll(ptr noundef nonnull %6, i64 noundef 1, i32 noundef %.08) #7
  %11 = icmp sgt i32 %10, -1
  br i1 %11, label %12, label %16

12:                                               ; preds = %5
  %13 = getelementptr inbounds i8, ptr %6, i64 6
  %14 = load i16, ptr %13, align 2
  %15 = sext i16 %14 to i32
  br label %handleSocketError.exit

16:                                               ; preds = %5
  %17 = tail call ptr @__errno_location() #6
  %18 = load i32, ptr %17, align 4
  switch i32 %18, label %22 [
    i32 4, label %handleSocketError.exit
    i32 115, label %handleSocketError.exit.fold.split
    i32 71, label %23
    i32 111, label %19
    i32 110, label %19
    i32 107, label %19
    i32 113, label %20
    i32 98, label %21
    i32 99, label %21
    i32 13, label %21
  ]

19:                                               ; preds = %16, %16, %16
  br label %23

20:                                               ; preds = %16
  br label %23

21:                                               ; preds = %16, %16, %16
  br label %23

22:                                               ; preds = %16
  br label %23

23:                                               ; preds = %16, %22, %21, %20, %19
  %.0.i.i = phi ptr [ @.str.3, %22 ], [ @.str.17, %21 ], [ @.str.16, %20 ], [ @.str.15, %19 ], [ @.str.14, %16 ]
  call void @JNU_ThrowByNameWithLastError(ptr noundef %0, ptr noundef nonnull %.0.i.i, ptr noundef nonnull @.str.18) #7
  br label %handleSocketError.exit

handleSocketError.exit.fold.split:                ; preds = %16
  br label %handleSocketError.exit

handleSocketError.exit:                           ; preds = %16, %handleSocketError.exit.fold.split, %23, %12
  %.0 = phi i32 [ %15, %12 ], [ 0, %16 ], [ -5, %23 ], [ -5, %handleSocketError.exit.fold.split ]
  ret i32 %.0
}